target datalayout = "e-m:e-p270:32:32-p271:32:32-p272:64:64-i64:64-i128:128-f80:128-n8:16:32:64-S128"
target triple = "x86_64-unknown-linux-gnu"

%"struct.icu_75::FormattedStringBuilder::Field" = type { i8 }
%"class.icu_75::UnicodeString" = type { %"class.icu_75::Replaceable", %"union.icu_75::UnicodeString::StackBufferOrFields" }
%"class.icu_75::Replaceable" = type { %"class.icu_75::UObject" }
%"class.icu_75::UObject" = type { ptr }
%"union.icu_75::UnicodeString::StackBufferOrFields" = type { %struct.anon.0, [32 x i8] }
%struct.anon.0 = type { i16, i32, i32, ptr }
%"class.icu_75::number::impl::MicroPropsGenerator" = type { ptr }
%"class.icu_75::number::impl::ModifierStore" = type { ptr }
%"class.icu_75::number::impl::SimpleModifier" = type { %"class.icu_75::number::impl::Modifier", %"class.icu_75::UnicodeString", %"struct.icu_75::FormattedStringBuilder::Field", i8, i32, i32, i32, %"struct.icu_75::number::impl::Modifier::Parameters" }
%"class.icu_75::number::impl::Modifier" = type { ptr }
%"struct.icu_75::number::impl::Modifier::Parameters" = type { ptr, i32, i32 }
%"class.icu_75::MeasureUnit" = type <{ %"class.icu_75::UObject", ptr, i16, i8, [5 x i8] }>
%"class.icu_75::Locale" = type <{ %"class.icu_75::UObject", [12 x i8], [6 x i8], [4 x i8], [2 x i8], i32, [4 x i8], ptr, [157 x i8], [3 x i8], ptr, i8, [7 x i8] }>
%"struct.icu_75::number::impl::MicroProps" = type <{ %"class.icu_75::number::impl::MicroPropsGenerator", %"struct.icu_75::number::impl::SimpleMicroProps", %"class.icu_75::number::impl::RoundingImpl", %"class.icu_75::number::impl::Padder", %"class.icu_75::number::IntegerWidth", i32, [9 x i8], [3 x i8], ptr, ptr, ptr, ptr, %struct.anon.7, %"class.icu_75::MeasureUnit", %"class.icu_75::number::impl::IntMeasures", i32, i32, i8, [7 x i8] }>
%"struct.icu_75::number::impl::SimpleMicroProps" = type { [4 x i8], %"class.icu_75::number::impl::Grouper", i8, i32, %"class.icu_75::UnicodeString", ptr }
%"class.icu_75::number::impl::Grouper" = type { i16, i16, i16, i32 }
%"class.icu_75::number::impl::RoundingImpl" = type <{ %"class.icu_75::number::Precision", i32, i8, [3 x i8] }>
%"class.icu_75::number::Precision" = type <{ i32, [4 x i8], %"union.icu_75::number::Precision::PrecisionUnion", i32, [4 x i8] }>
%"union.icu_75::number::Precision::PrecisionUnion" = type { %"struct.icu_75::number::Precision::PrecisionUnion::IncrementSettings" }
%"struct.icu_75::number::Precision::PrecisionUnion::IncrementSettings" = type { i64, i16, i16 }
%"class.icu_75::number::impl::Padder" = type { i32, %union.anon.3 }
%union.anon.3 = type { %struct.anon.4 }
%struct.anon.4 = type { i32, i32 }
%"class.icu_75::number::IntegerWidth" = type <{ %union.anon.5, i8, [3 x i8] }>
%union.anon.5 = type { i32, [4 x i8] }
%struct.anon.7 = type { %"class.icu_75::number::impl::ScientificModifier", %"class.icu_75::number::impl::EmptyModifier", %"class.icu_75::number::impl::EmptyModifier", %"class.icu_75::number::impl::MultiplierFormatHandler", %"class.icu_75::number::impl::SimpleModifier" }
%"class.icu_75::number::impl::ScientificModifier" = type { %"class.icu_75::number::impl::Modifier", i32, ptr }
%"class.icu_75::number::impl::EmptyModifier" = type <{ %"class.icu_75::number::impl::Modifier", i8, [7 x i8] }>
%"class.icu_75::number::impl::MultiplierFormatHandler" = type { %"class.icu_75::number::impl::MicroPropsGenerator", %"class.icu_75::number::Scale", ptr }
%"class.icu_75::number::Scale" = type <{ i32, [4 x i8], ptr, i32, [4 x i8] }>
%"class.icu_75::number::impl::IntMeasures" = type <{ %"class.icu_75::MaybeStackArray.8", i32, [4 x i8] }>
%"class.icu_75::MaybeStackArray.8" = type { ptr, i32, i8, [2 x i64] }
%"class.icu_75::number::LocalizedNumberFormatter" = type { %"class.icu_75::number::NumberFormatterSettings", ptr, [8 x i8], ptr }
%"class.icu_75::number::NumberFormatterSettings" = type { %"struct.icu_75::number::impl::MacroProps" }
%"struct.icu_75::number::impl::MacroProps" = type { [4 x i8], %"class.icu_75::number::Notation", %"class.icu_75::MeasureUnit", %"class.icu_75::MeasureUnit", %"class.icu_75::number::Precision", i32, %"class.icu_75::number::impl::Grouper", %"class.icu_75::number::impl::Padder", %"class.icu_75::number::IntegerWidth", %"class.icu_75::number::impl::SymbolsWrapper", i32, i32, i8, i32, %"class.icu_75::number::Scale", %"class.icu_75::number::impl::StringProp", %"class.icu_75::number::impl::StringProp", ptr, ptr, i32, [4 x i8], %"class.icu_75::Locale" }
%"class.icu_75::number::Notation" = type { i32, %"union.icu_75::number::Notation::NotationUnion" }
%"union.icu_75::number::Notation::NotationUnion" = type { %"struct.icu_75::number::Notation::NotationUnion::ScientificSettings" }
%"struct.icu_75::number::Notation::NotationUnion::ScientificSettings" = type { i8, i8, i16, i32 }
%"class.icu_75::number::impl::SymbolsWrapper" = type { i32, %union.anon.9 }
%union.anon.9 = type { ptr }
%"class.icu_75::number::impl::StringProp" = type { ptr, i16, i32 }
%"class.icu_75::number::impl::MixedUnitLongNameHandler" = type { %"class.icu_75::number::impl::MicroPropsGenerator", %"class.icu_75::number::impl::ModifierStore", ptr, ptr, i32, %"class.icu_75::LocalArray", %"class.icu_75::number::LocalizedNumberFormatter", %"class.icu_75::LocalPointer" }
%"class.icu_75::LocalArray" = type { %"class.icu_75::LocalPointerBase" }
%"class.icu_75::LocalPointerBase" = type { ptr }
%"class.icu_75::LocalPointer" = type { %"class.icu_75::LocalPointerBase.10" }
%"class.icu_75::LocalPointerBase.10" = type { ptr }

; Function Attrs: mustprogress uwtable
define void @_ZNK6icu_756number4impl24MixedUnitLongNameHandler15processQuantityERNS1_15DecimalQuantityERNS1_10MicroPropsER10UErrorCode(ptr noundef nonnull align 8 dereferenceable(552) %this, ptr noundef nonnull align 8 dereferenceable(66) %quantity, ptr noundef nonnull align 8 dereferenceable(489) %micros, ptr noundef nonnull align 4 dereferenceable(4) %status) unnamed_addr #1 align 2 {
entry:
  %this.addr = alloca ptr, align 8
  %quantity.addr = alloca ptr, align 8
  %micros.addr = alloca ptr, align 8
  %status.addr = alloca ptr, align 8
  store ptr %this, ptr %this.addr, align 8
  store ptr %quantity, ptr %quantity.addr, align 8
  store ptr %micros, ptr %micros.addr, align 8
  store ptr %status, ptr %status.addr, align 8
  %this1 = load ptr, ptr %this.addr, align 8
  %parent = getelementptr inbounds %"class.icu_75::number::impl::MixedUnitLongNameHandler", ptr %this1, i32 0, i32 3
  %0 = load ptr, ptr %parent, align 8
  %cmp = icmp ne ptr %0, null
  br i1 %cmp, label %if.then, label %if.end

if.then:                                          ; preds = %entry
  %parent2 = getelementptr inbounds %"class.icu_75::number::impl::MixedUnitLongNameHandler", ptr %this1, i32 0, i32 3
  %1 = load ptr, ptr %parent2, align 8
  %2 = load ptr, ptr %quantity.addr, align 8
  %3 = load ptr, ptr %micros.addr, align 8
  %4 = load ptr, ptr %status.addr, align 8
  %vtable = load ptr, ptr %1, align 8
  %vfn = getelementptr inbounds ptr, ptr %vtable, i64 2
  %5 = load ptr, ptr %vfn, align 8
  call void %5(ptr noundef nonnull align 8 dereferenceable(8) %1, ptr noundef nonnull align 8 dereferenceable(66) %2, ptr noundef nonnull align 8 dereferenceable(489) %3, ptr noundef nonnull align 4 dereferenceable(4) %4)
  br label %if.end

if.end:                                           ; preds = %if.then, %entry
  %6 = load ptr, ptr %quantity.addr, align 8
  %7 = load ptr, ptr %micros.addr, align 8
  %8 = load ptr, ptr %status.addr, align 8
  %call = call noundef ptr @_ZNK6icu_756number4impl24MixedUnitLongNameHandler20getMixedUnitModifierERNS1_15DecimalQuantityERNS1_10MicroPropsER10UErrorCode(ptr noundef nonnull align 8 dereferenceable(552) %this1, ptr noundef nonnull align 8 dereferenceable(66) %6, ptr noundef nonnull align 8 dereferenceable(489) %7, ptr noundef nonnull align 4 dereferenceable(4) %8)
  %9 = load ptr, ptr %micros.addr, align 8
  %modOuter = getelementptr inbounds %"struct.icu_75::number::impl::MicroProps", ptr %9, i32 0, i32 9
  store ptr %call, ptr %modOuter, align 8
  ret void
}