; Function Attrs: mustprogress uwtable
define void @_ZNK6icu_756number4impl24MixedUnitLongNameHandler15processQuantityERNS1_15DecimalQuantityERNS1_10MicroPropsER10UErrorCode(ptr noundef nonnull align 8 dereferenceable(552) %this, ptr noundef nonnull align 8 dereferenceable(66) %quantity, ptr noundef nonnull align 8 dereferenceable(489) %micros, ptr noundef nonnull align 4 dereferenceable(4) %status) unnamed_addr #1 align 2 {
entry:
  %parent = getelementptr inbounds i8, ptr %this, i64 24
  %0 = load ptr, ptr %parent, align 8
  %cmp.not = icmp eq ptr %0, null
  br i1 %cmp.not, label %if.end, label %if.then

if.then:                                          ; preds = %entry
  %vtable = load ptr, ptr %0, align 8
  %vfn = getelementptr inbounds i8, ptr %vtable, i64 16
  %1 = load ptr, ptr %vfn, align 8
  tail call void %1(ptr noundef nonnull align 8 dereferenceable(8) %0, ptr noundef nonnull align 8 dereferenceable(66) %quantity, ptr noundef nonnull align 8 dereferenceable(489) %micros, ptr noundef nonnull align 4 dereferenceable(4) %status)
  br label %if.end

if.end:                                           ; preds = %if.then, %entry
  %call = tail call noundef ptr @_ZNK6icu_756number4impl24MixedUnitLongNameHandler20getMixedUnitModifierERNS1_15DecimalQuantityERNS1_10MicroPropsER10UErrorCode(ptr noundef nonnull align 8 dereferenceable(552) %this, ptr noundef nonnull align 8 dereferenceable(66) %quantity, ptr noundef nonnull align 8 dereferenceable(489) %micros, ptr noundef nonnull align 4 dereferenceable(4) %status)
  %modOuter = getelementptr inbounds i8, ptr %micros, i64 192
  store ptr %call, ptr %modOuter, align 8
  ret void
}